target datalayout = "e-m:e-p270:32:32-p271:32:32-p272:64:64-i64:64-i128:128-f80:128-n8:16:32:64-S128"
target triple = "x86_64-pc-linux-gnu"

%struct.TCGOp = type { i32, i32, %union.anon, [2 x i32], [0 x i64] }
%union.anon = type { %struct.QTailQLink }
%struct.QTailQLink = type { ptr, ptr }

@tcg_ctx = external thread_local global ptr, align 8

; Function Attrs: inlinehint nounwind sspstrong uwtable
define internal i64 @temp_arg(ptr noundef %0) #4 {
  %2 = alloca ptr, align 8
  store ptr %0, ptr %2, align 8
  %3 = load ptr, ptr %2, align 8
  %4 = ptrtoint ptr %3 to i64
  ret i64 %4
}

; Function Attrs: inlinehint nounwind sspstrong uwtable
define internal ptr @tcgv_i32_temp(ptr noundef %0) #4 {
  %2 = alloca ptr, align 8
  store ptr %0, ptr %2, align 8
  %3 = call align 8 ptr @llvm.threadlocal.address.p0(ptr align 8 @tcg_ctx)
  %4 = load ptr, ptr %3, align 8
  %5 = load ptr, ptr %2, align 8
  %6 = ptrtoint ptr %5 to i64
  %7 = getelementptr inbounds nuw i8, ptr %4, i64 %6
  ret ptr %7
}

; Function Attrs: noinline nounwind sspstrong uwtable
define dso_local ptr @tcg_gen_op2(i32 noundef %0, i32 noundef %1, i64 noundef %2, i64 noundef %3) #0 {
  %5 = alloca i32, align 4
  %6 = alloca i32, align 4
  %7 = alloca i64, align 8
  %8 = alloca i64, align 8
  %9 = alloca ptr, align 8
  store i32 %0, ptr %5, align 4
  store i32 %1, ptr %6, align 4
  store i64 %2, ptr %7, align 8
  store i64 %3, ptr %8, align 8
  call void @llvm.lifetime.start.p0(i64 8, ptr %9) #7
  %10 = load i32, ptr %5, align 4
  %11 = call ptr @tcg_emit_op(i32 noundef %10, i32 noundef 2)
  store ptr %11, ptr %9, align 8
  %12 = load i32, ptr %6, align 4
  %13 = load ptr, ptr %9, align 8
  %14 = load i32, ptr %13, align 8
  %15 = and i32 %12, 255
  %16 = shl i32 %15, 16
  %17 = and i32 %14, -16711681
  %18 = or i32 %17, %16
  store i32 %18, ptr %13, align 8
  %19 = load i64, ptr %7, align 8
  %20 = load ptr, ptr %9, align 8
  %21 = getelementptr inbounds nuw %struct.TCGOp, ptr %20, i32 0, i32 4
  %22 = getelementptr inbounds [0 x i64], ptr %21, i64 0, i64 0
  store i64 %19, ptr %22, align 8
  %23 = load i64, ptr %8, align 8
  %24 = load ptr, ptr %9, align 8
  %25 = getelementptr inbounds nuw %struct.TCGOp, ptr %24, i32 0, i32 4
  %26 = getelementptr inbounds [0 x i64], ptr %25, i64 0, i64 1
  store i64 %23, ptr %26, align 8
  %27 = load ptr, ptr %9, align 8
  call void @llvm.lifetime.end.p0(i64 8, ptr %9) #7
  ret ptr %27
}

; Function Attrs: inlinehint nounwind sspstrong uwtable
define internal i64 @tcgv_i32_arg(ptr noundef %0) #4 {
  %2 = alloca ptr, align 8
  store ptr %0, ptr %2, align 8
  %3 = load ptr, ptr %2, align 8
  %4 = call ptr @tcgv_i32_temp(ptr noundef %3)
  %5 = call i64 @temp_arg(ptr noundef %4)
  ret i64 %5
}

; Function Attrs: nounwind sspstrong uwtable
define internal void @tcg_gen_op2_i32(i32 noundef %0, ptr noundef %1, ptr noundef %2) #3 {
  %4 = alloca i32, align 4
  %5 = alloca ptr, align 8
  %6 = alloca ptr, align 8
  store i32 %0, ptr %4, align 4
  store ptr %1, ptr %5, align 8
  store ptr %2, ptr %6, align 8
  %7 = load i32, ptr %4, align 4
  %8 = load ptr, ptr %5, align 8
  %9 = call i64 @tcgv_i32_arg(ptr noundef %8)
  %10 = load ptr, ptr %6, align 8
  %11 = call i64 @tcgv_i32_arg(ptr noundef %10)
  %12 = call ptr @tcg_gen_op2(i32 noundef %7, i32 noundef 0, i64 noundef %9, i64 noundef %11)
  ret void
}

; Function Attrs: nounwind sspstrong uwtable
define internal void @tcg_gen_op3_i32(i32 noundef %0, ptr noundef %1, ptr noundef %2, ptr noundef %3) #3 {
  %5 = alloca i32, align 4
  %6 = alloca ptr, align 8
  %7 = alloca ptr, align 8
  %8 = alloca ptr, align 8
  store i32 %0, ptr %5, align 4
  store ptr %1, ptr %6, align 8
  store ptr %2, ptr %7, align 8
  store ptr %3, ptr %8, align 8
  %9 = load i32, ptr %5, align 4
  %10 = load ptr, ptr %6, align 8
  %11 = call i64 @tcgv_i32_arg(ptr noundef %10)
  %12 = load ptr, ptr %7, align 8
  %13 = call i64 @tcgv_i32_arg(ptr noundef %12)
  %14 = load ptr, ptr %8, align 8
  %15 = call i64 @tcgv_i32_arg(ptr noundef %14)
  %16 = call ptr @tcg_gen_op3(i32 noundef %9, i32 noundef 0, i64 noundef %11, i64 noundef %13, i64 noundef %15)
  ret void
}

; Function Attrs: nounwind sspstrong uwtable
define dso_local void @tcg_gen_sar_i32(ptr noundef %0, ptr noundef %1, ptr noundef %2) #3 {
  %4 = alloca ptr, align 8
  %5 = alloca ptr, align 8
  %6 = alloca ptr, align 8
  store ptr %0, ptr %4, align 8
  store ptr %1, ptr %5, align 8
  store ptr %2, ptr %6, align 8
  %7 = load ptr, ptr %4, align 8
  %8 = load ptr, ptr %5, align 8
  %9 = load ptr, ptr %6, align 8
  call void @tcg_gen_op3_i32(i32 noundef 31, ptr noundef %7, ptr noundef %8, ptr noundef %9)
  ret void
}

; Function Attrs: nounwind sspstrong uwtable
define dso_local void @tcg_gen_mov_i32(ptr noundef %0, ptr noundef %1) #3 {
  %3 = alloca ptr, align 8
  %4 = alloca ptr, align 8
  store ptr %0, ptr %3, align 8
  store ptr %1, ptr %4, align 8
  %5 = load ptr, ptr %3, align 8
  %6 = load ptr, ptr %4, align 8
  %7 = icmp ne ptr %5, %6
  br i1 %7, label %8, label %11

8:                                                ; preds = %2
  %9 = load ptr, ptr %3, align 8
  %10 = load ptr, ptr %4, align 8
  call void @tcg_gen_op2_i32(i32 noundef 5, ptr noundef %9, ptr noundef %10)
  br label %11

11:                                               ; preds = %8, %2
  ret void
}

; Function Attrs: nounwind sspstrong uwtable
define dso_local void @tcg_gen_sub_i32(ptr noundef %0, ptr noundef %1, ptr noundef %2) #3 {
  %4 = alloca ptr, align 8
  %5 = alloca ptr, align 8
  %6 = alloca ptr, align 8
  store ptr %0, ptr %4, align 8
  store ptr %1, ptr %5, align 8
  store ptr %2, ptr %6, align 8
  %7 = load ptr, ptr %4, align 8
  %8 = load ptr, ptr %5, align 8
  %9 = load ptr, ptr %6, align 8
  call void @tcg_gen_op3_i32(i32 noundef 18, ptr noundef %7, ptr noundef %8, ptr noundef %9)
  ret void
}

; Function Attrs: nounwind sspstrong uwtable
define dso_local void @tcg_gen_xor_i32(ptr noundef %0, ptr noundef %1, ptr noundef %2) #3 {
  %4 = alloca ptr, align 8
  %5 = alloca ptr, align 8
  %6 = alloca ptr, align 8
  store ptr %0, ptr %4, align 8
  store ptr %1, ptr %5, align 8
  store ptr %2, ptr %6, align 8
  %7 = load ptr, ptr %4, align 8
  %8 = load ptr, ptr %5, align 8
  %9 = load ptr, ptr %6, align 8
  call void @tcg_gen_op3_i32(i32 noundef 28, ptr noundef %7, ptr noundef %8, ptr noundef %9)
  ret void
}

; Function Attrs: nounwind sspstrong uwtable
define dso_local void @tcg_gen_sari_i32(ptr noundef %0, ptr noundef %1, i32 noundef %2) #3 {
  %4 = alloca ptr, align 8
  %5 = alloca ptr, align 8
  %6 = alloca i32, align 4
  store ptr %0, ptr %4, align 8
  store ptr %1, ptr %5, align 8
  store i32 %2, ptr %6, align 4
  br label %7

7:                                                ; preds = %3
  %8 = load i32, ptr %6, align 4
  %9 = icmp sge i32 %8, 0
  br i1 %9, label %10, label %13

10:                                               ; preds = %7
  %11 = load i32, ptr %6, align 4
  %12 = icmp slt i32 %11, 32
  br i1 %12, label %14, label %13

13:                                               ; preds = %10, %7
  unreachable

14:                                               ; preds = %10
  br label %15

15:                                               ; preds = %14
  %16 = load i32, ptr %6, align 4
  %17 = icmp eq i32 %16, 0
  br i1 %17, label %18, label %21

18:                                               ; preds = %15
  %19 = load ptr, ptr %4, align 8
  %20 = load ptr, ptr %5, align 8
  call void @tcg_gen_mov_i32(ptr noundef %19, ptr noundef %20)
  br label %26

21:                                               ; preds = %15
  %22 = load ptr, ptr %4, align 8
  %23 = load ptr, ptr %5, align 8
  %24 = load i32, ptr %6, align 4
  %25 = call ptr @tcg_constant_i32(i32 noundef %24)
  call void @tcg_gen_sar_i32(ptr noundef %22, ptr noundef %23, ptr noundef %25)
  br label %26

26:                                               ; preds = %21, %18
  ret void
}

; Function Attrs: nounwind sspstrong uwtable
define dso_local void @tcg_gen_abs_i32(ptr noundef %0, ptr noundef %1) #3 {
  %3 = alloca ptr, align 8
  %4 = alloca ptr, align 8
  %5 = alloca ptr, align 8
  store ptr %0, ptr %3, align 8
  store ptr %1, ptr %4, align 8
  call void @llvm.lifetime.start.p0(i64 8, ptr %5) #7
  %6 = call ptr @tcg_temp_ebb_new_i32()
  store ptr %6, ptr %5, align 8
  %7 = load ptr, ptr %5, align 8
  %8 = load ptr, ptr %4, align 8
  call void @tcg_gen_sari_i32(ptr noundef %7, ptr noundef %8, i32 noundef 31)
  %9 = load ptr, ptr %3, align 8
  %10 = load ptr, ptr %4, align 8
  %11 = load ptr, ptr %5, align 8
  call void @tcg_gen_xor_i32(ptr noundef %9, ptr noundef %10, ptr noundef %11)
  %12 = load ptr, ptr %3, align 8
  %13 = load ptr, ptr %3, align 8
  %14 = load ptr, ptr %5, align 8
  call void @tcg_gen_sub_i32(ptr noundef %12, ptr noundef %13, ptr noundef %14)
  %15 = load ptr, ptr %5, align 8
  call void @tcg_temp_free_i32(ptr noundef %15)
  call void @llvm.lifetime.end.p0(i64 8, ptr %5) #7
  ret void
}